target datalayout = "e-m:e-p270:32:32-p271:32:32-p272:64:64-i64:64-i128:128-f80:128-n8:16:32:64-S128"
target triple = "x86_64-pc-linux-gnu"

%struct.nag_req = type { i32, i32, [64 x i8], ptr }
%struct.client_response = type { ptr }

@.str = private unnamed_addr constant [7 x i8] c"info.c\00", align 1
@nag_req_list = internal global ptr null, align 8
@.str.1 = private unnamed_addr constant [39 x i8] c"%s: %s: mpi/pmi2: node_attr_put: %s=%s\00", align 1
@plugin_type = external constant [0 x i8], align 1
@__func__.node_attr_put = private unnamed_addr constant [14 x i8] c"node_attr_put\00", align 1
@na_cnt = internal global i32 0, align 4
@na_size = internal global i32 0, align 4
@node_attr = internal global ptr null, align 8
@.str.2 = private unnamed_addr constant [53 x i8] c"%s: %s: mpi/pmi2: found pending request from rank %d\00", align 1
@.str.3 = private unnamed_addr constant [56 x i8] c"cmd=info-getnodeattr-response;rc=0;found=TRUE;value=%s;\00", align 1
@.str.4 = private unnamed_addr constant [64 x i8] c"mpi/pmi2: failed to send 'info-getnodeattr-response' to task %d\00", align 1
@.str.5 = private unnamed_addr constant [36 x i8] c"%s: %s: mpi/pmi2: out node_attr_put\00", align 1

; Function Attrs: nounwind uwtable
define dso_local i32 @node_attr_put(ptr noundef %0, ptr noundef %1) #0 {
  %3 = alloca ptr, align 8
  %4 = alloca ptr, align 8
  %5 = alloca ptr, align 8
  %6 = alloca ptr, align 8
  %7 = alloca ptr, align 8
  %8 = alloca i32, align 4
  store ptr %0, ptr %3, align 8
  store ptr %1, ptr %4, align 8
  call void @llvm.lifetime.start.p0(i64 8, ptr %5) #4
  store ptr null, ptr %5, align 8
  call void @llvm.lifetime.start.p0(i64 8, ptr %6) #4
  store ptr null, ptr %6, align 8
  call void @llvm.lifetime.start.p0(i64 8, ptr %7) #4
  store ptr null, ptr %7, align 8
  call void @llvm.lifetime.start.p0(i64 4, ptr %8) #4
  store i32 0, ptr %8, align 4
  br label %9

9:                                                ; preds = %2
  br label %10

10:                                               ; preds = %9
  %11 = call i32 @slurm_get_log_level()
  %12 = icmp sge i32 %11, 7
  br i1 %12, label %13, label %16

13:                                               ; preds = %10
  %14 = load ptr, ptr %3, align 8
  %15 = load ptr, ptr %4, align 8
  call void (i32, ptr, ...) @slurm_log_var(i32 noundef 7, ptr noundef @.str.1, ptr noundef @plugin_type, ptr noundef @__func__.node_attr_put, ptr noundef %14, ptr noundef %15)
  br label %16

16:                                               ; preds = %13, %10
  br label %17

17:                                               ; preds = %16
  br label %18

18:                                               ; preds = %17
  br label %19

19:                                               ; preds = %18
  br label %20

20:                                               ; preds = %19
  %21 = load i32, ptr @na_cnt, align 4
  %22 = mul nsw i32 %21, 2
  %23 = load i32, ptr @na_size, align 4
  %24 = icmp sge i32 %22, %23
  br i1 %24, label %25, label %32

25:                                               ; preds = %20
  %26 = load i32, ptr @na_size, align 4
  %27 = add nsw i32 %26, 8
  store i32 %27, ptr @na_size, align 4
  %28 = load i32, ptr @na_size, align 4
  %29 = sext i32 %28 to i64
  %30 = mul i64 %29, 8
  %31 = call ptr @slurm_xrecalloc(ptr noundef @node_attr, i64 noundef 1, i64 noundef %30, i1 noundef zeroext true, i1 noundef zeroext false, ptr noundef @.str, i32 noundef 107, ptr noundef @__func__.node_attr_put)
  br label %32

32:                                               ; preds = %25, %20
  %33 = load ptr, ptr %3, align 8
  %34 = call ptr @slurm_xstrdup(ptr noundef %33)
  %35 = load ptr, ptr @node_attr, align 8
  %36 = load i32, ptr @na_cnt, align 4
  %37 = mul nsw i32 %36, 2
  %38 = sext i32 %37 to i64
  %39 = getelementptr inbounds ptr, ptr %35, i64 %38
  store ptr %34, ptr %39, align 8
  %40 = load ptr, ptr %4, align 8
  %41 = call ptr @slurm_xstrdup(ptr noundef %40)
  %42 = load ptr, ptr @node_attr, align 8
  %43 = load i32, ptr @na_cnt, align 4
  %44 = mul nsw i32 %43, 2
  %45 = add nsw i32 %44, 1
  %46 = sext i32 %45 to i64
  %47 = getelementptr inbounds ptr, ptr %42, i64 %46
  store ptr %41, ptr %47, align 8
  %48 = load i32, ptr @na_cnt, align 4
  %49 = add nsw i32 %48, 1
  store i32 %49, ptr @na_cnt, align 4
  store ptr @nag_req_list, ptr %6, align 8
  %50 = load ptr, ptr %6, align 8
  %51 = load ptr, ptr %50, align 8
  store ptr %51, ptr %5, align 8
  br label %52

52:                                               ; preds = %111, %32
  %53 = load ptr, ptr %5, align 8
  %54 = icmp ne ptr %53, null
  br i1 %54, label %55, label %112

55:                                               ; preds = %52
  %56 = load ptr, ptr %3, align 8
  %57 = load ptr, ptr %5, align 8
  %58 = getelementptr inbounds nuw %struct.nag_req, ptr %57, i32 0, i32 2
  %59 = getelementptr inbounds [64 x i8], ptr %58, i64 0, i64 0
  %60 = call i32 @slurm_xstrncmp(ptr noundef %56, ptr noundef %59, i64 noundef 64)
  %61 = icmp ne i32 %60, 0
  br i1 %61, label %62, label %67

62:                                               ; preds = %55
  %63 = load ptr, ptr %5, align 8
  %64 = getelementptr inbounds nuw %struct.nag_req, ptr %63, i32 0, i32 3
  store ptr %64, ptr %6, align 8
  %65 = load ptr, ptr %6, align 8
  %66 = load ptr, ptr %65, align 8
  store ptr %66, ptr %5, align 8
  br label %111

67:                                               ; preds = %55
  br label %68

68:                                               ; preds = %67
  br label %69

69:                                               ; preds = %68
  %70 = call i32 @slurm_get_log_level()
  %71 = icmp sge i32 %70, 5
  br i1 %71, label %72, label %76

72:                                               ; preds = %69
  %73 = load ptr, ptr %5, align 8
  %74 = getelementptr inbounds nuw %struct.nag_req, ptr %73, i32 0, i32 1
  %75 = load i32, ptr %74, align 4
  call void (i32, ptr, ...) @slurm_log_var(i32 noundef 5, ptr noundef @.str.2, ptr noundef @plugin_type, ptr noundef @__func__.node_attr_put, i32 noundef %75)
  br label %76

76:                                               ; preds = %72, %69
  br label %77

77:                                               ; preds = %76
  br label %78

78:                                               ; preds = %77
  br label %79

79:                                               ; preds = %78
  br label %80

80:                                               ; preds = %79
  %81 = load ptr, ptr %7, align 8
  %82 = icmp ne ptr %81, null
  br i1 %82, label %91, label %83

83:                                               ; preds = %80
  %84 = call ptr @client_resp_new()
  store ptr %84, ptr %7, align 8
  br label %85

85:                                               ; preds = %83
  %86 = load ptr, ptr %7, align 8
  %87 = getelementptr inbounds nuw %struct.client_response, ptr %86, i32 0, i32 0
  %88 = load ptr, ptr %4, align 8
  call void (ptr, ptr, ...) @slurm_xstrfmtcat(ptr noundef %87, ptr noundef @.str.3, ptr noundef %88)
  br label %89

89:                                               ; preds = %85
  br label %90

90:                                               ; preds = %89
  br label %91

91:                                               ; preds = %90, %80
  %92 = load ptr, ptr %7, align 8
  %93 = load ptr, ptr %5, align 8
  %94 = getelementptr inbounds nuw %struct.nag_req, ptr %93, i32 0, i32 0
  %95 = load i32, ptr %94, align 8
  %96 = call i32 @client_resp_send(ptr noundef %92, i32 noundef %95)
  store i32 %96, ptr %8, align 4
  %97 = load i32, ptr %8, align 4
  %98 = icmp ne i32 %97, 0
  br i1 %98, label %99, label %104

99:                                               ; preds = %91
  %100 = load ptr, ptr %5, align 8
  %101 = getelementptr inbounds nuw %struct.nag_req, ptr %100, i32 0, i32 1
  %102 = load i32, ptr %101, align 4
  %103 = call i32 (ptr, ...) @slurm_error(ptr noundef @.str.4, i32 noundef %102)
  br label %104

104:                                              ; preds = %99, %91
  %105 = load ptr, ptr %5, align 8
  %106 = getelementptr inbounds nuw %struct.nag_req, ptr %105, i32 0, i32 3
  %107 = load ptr, ptr %106, align 8
  %108 = load ptr, ptr %6, align 8
  store ptr %107, ptr %108, align 8
  call void @slurm_xfree(ptr noundef %5)
  %109 = load ptr, ptr %6, align 8
  %110 = load ptr, ptr %109, align 8
  store ptr %110, ptr %5, align 8
  br label %111

111:                                              ; preds = %104, %62
  br label %52, !llvm.loop !8

112:                                              ; preds = %52
  %113 = load ptr, ptr %7, align 8
  %114 = icmp ne ptr %113, null
  br i1 %114, label %115, label %117

115:                                              ; preds = %112
  %116 = load ptr, ptr %7, align 8
  call void @client_resp_free(ptr noundef %116)
  br label %117

117:                                              ; preds = %115, %112
  br label %118

118:                                              ; preds = %117
  br label %119

119:                                              ; preds = %118
  %120 = call i32 @slurm_get_log_level()
  %121 = icmp sge i32 %120, 7
  br i1 %121, label %122, label %123

122:                                              ; preds = %119
  call void (i32, ptr, ...) @slurm_log_var(i32 noundef 7, ptr noundef @.str.5, ptr noundef @plugin_type, ptr noundef @__func__.node_attr_put)
  br label %123

123:                                              ; preds = %122, %119
  br label %124

124:                                              ; preds = %123
  br label %125

125:                                              ; preds = %124
  br label %126

126:                                              ; preds = %125
  br label %127

127:                                              ; preds = %126
  call void @llvm.lifetime.end.p0(i64 4, ptr %8) #4
  call void @llvm.lifetime.end.p0(i64 8, ptr %7) #4
  call void @llvm.lifetime.end.p0(i64 8, ptr %6) #4
  call void @llvm.lifetime.end.p0(i64 8, ptr %5) #4
  ret i32 0
}