; Function Attrs: nounwind uwtable
define dso_local noundef i32 @node_attr_put(ptr noundef %0, ptr noundef %1) local_unnamed_addr #0 {
  %3 = alloca ptr, align 8
  call void @llvm.lifetime.start.p0(i64 8, ptr nonnull %3) #5
  %4 = tail call i32 @slurm_get_log_level() #5
  %5 = icmp sgt i32 %4, 6
  br i1 %5, label %6, label %7

6:                                                ; preds = %2
  tail call void (i32, ptr, ...) @slurm_log_var(i32 noundef 7, ptr noundef nonnull @.str.1, ptr noundef nonnull @plugin_type, ptr noundef nonnull @__func__.node_attr_put, ptr noundef %0, ptr noundef %1) #5
  br label %7

7:                                                ; preds = %6, %2
  %8 = load i32, ptr @na_cnt, align 4
  %9 = shl nsw i32 %8, 1
  %10 = load i32, ptr @na_size, align 4
  %.not = icmp slt i32 %9, %10
  br i1 %.not, label %16, label %11

11:                                               ; preds = %7
  %12 = add nsw i32 %10, 8
  store i32 %12, ptr @na_size, align 4
  %13 = sext i32 %12 to i64
  %14 = shl nsw i64 %13, 3
  %15 = tail call ptr @slurm_xrecalloc(ptr noundef nonnull @node_attr, i64 noundef 1, i64 noundef %14, i1 noundef zeroext true, i1 noundef zeroext false, ptr noundef nonnull @.str, i32 noundef 107, ptr noundef nonnull @__func__.node_attr_put) #5
  br label %16

16:                                               ; preds = %11, %7
  %17 = tail call ptr @slurm_xstrdup(ptr noundef %0) #5
  %18 = load ptr, ptr @node_attr, align 8
  %19 = load i32, ptr @na_cnt, align 4
  %20 = shl nsw i32 %19, 1
  %21 = sext i32 %20 to i64
  %22 = getelementptr inbounds ptr, ptr %18, i64 %21
  store ptr %17, ptr %22, align 8
  %23 = tail call ptr @slurm_xstrdup(ptr noundef %1) #5
  %24 = load ptr, ptr @node_attr, align 8
  %25 = load i32, ptr @na_cnt, align 4
  %26 = shl nsw i32 %25, 1
  %27 = or disjoint i32 %26, 1
  %28 = sext i32 %27 to i64
  %29 = getelementptr inbounds ptr, ptr %24, i64 %28
  store ptr %23, ptr %29, align 8
  %30 = add nsw i32 %25, 1
  store i32 %30, ptr @na_cnt, align 4
  %storemerge2425 = load ptr, ptr @nag_req_list, align 8
  store ptr %storemerge2425, ptr %3, align 8
  %.not1926 = icmp eq ptr %storemerge2425, null
  br i1 %.not1926, label %._crit_edge.thread, label %.lr.ph

.lr.ph:                                           ; preds = %16, %59
  %storemerge2429 = phi ptr [ %storemerge24, %59 ], [ %storemerge2425, %16 ]
  %.028 = phi ptr [ %.1, %59 ], [ null, %16 ]
  %.01527 = phi ptr [ %storemerge.in, %59 ], [ @nag_req_list, %16 ]
  %31 = getelementptr inbounds nuw i8, ptr %storemerge2429, i64 8
  %32 = call i32 @slurm_xstrncmp(ptr noundef %0, ptr noundef nonnull %31, i64 noundef 64) #5
  %.not21 = icmp eq i32 %32, 0
  br i1 %.not21, label %36, label %33

33:                                               ; preds = %.lr.ph
  %34 = load ptr, ptr %3, align 8
  %35 = getelementptr inbounds nuw i8, ptr %34, i64 72
  br label %59

36:                                               ; preds = %.lr.ph
  %37 = call i32 @slurm_get_log_level() #5
  %38 = icmp sgt i32 %37, 4
  br i1 %38, label %39, label %43

39:                                               ; preds = %36
  %40 = load ptr, ptr %3, align 8
  %41 = getelementptr inbounds nuw i8, ptr %40, i64 4
  %42 = load i32, ptr %41, align 4
  call void (i32, ptr, ...) @slurm_log_var(i32 noundef 5, ptr noundef nonnull @.str.2, ptr noundef nonnull @plugin_type, ptr noundef nonnull @__func__.node_attr_put, i32 noundef %42) #5
  br label %43

43:                                               ; preds = %39, %36
  %.not22 = icmp eq ptr %.028, null
  br i1 %.not22, label %44, label %46

44:                                               ; preds = %43
  %45 = call ptr @client_resp_new() #5
  call void (ptr, ptr, ...) @slurm_xstrfmtcat(ptr noundef %45, ptr noundef nonnull @.str.3, ptr noundef %1) #5
  br label %46

46:                                               ; preds = %44, %43
  %.2 = phi ptr [ %.028, %43 ], [ %45, %44 ]
  %47 = load ptr, ptr %3, align 8
  %48 = load i32, ptr %47, align 8
  %49 = call i32 @client_resp_send(ptr noundef %.2, i32 noundef %48) #5
  %.not23 = icmp eq i32 %49, 0
  br i1 %.not23, label %55, label %50

50:                                               ; preds = %46
  %51 = load ptr, ptr %3, align 8
  %52 = getelementptr inbounds nuw i8, ptr %51, i64 4
  %53 = load i32, ptr %52, align 4
  %54 = call i32 (ptr, ...) @slurm_error(ptr noundef nonnull @.str.4, i32 noundef %53) #5
  br label %55

55:                                               ; preds = %50, %46
  %56 = load ptr, ptr %3, align 8
  %57 = getelementptr inbounds nuw i8, ptr %56, i64 72
  %58 = load ptr, ptr %57, align 8
  store ptr %58, ptr %.01527, align 8
  call void @slurm_xfree(ptr noundef nonnull %3) #5
  br label %59

59:                                               ; preds = %55, %33
  %storemerge.in = phi ptr [ %.01527, %55 ], [ %35, %33 ]
  %.1 = phi ptr [ %.2, %55 ], [ %.028, %33 ]
  %storemerge24 = load ptr, ptr %storemerge.in, align 8
  store ptr %storemerge24, ptr %3, align 8
  %.not19 = icmp eq ptr %storemerge24, null
  br i1 %.not19, label %._crit_edge, label %.lr.ph, !llvm.loop !8

._crit_edge:                                      ; preds = %59
  %.not20 = icmp eq ptr %.1, null
  br i1 %.not20, label %._crit_edge.thread, label %60

60:                                               ; preds = %._crit_edge
  call void @client_resp_free(ptr noundef nonnull %.1) #5
  br label %._crit_edge.thread

._crit_edge.thread:                               ; preds = %16, %60, %._crit_edge
  %61 = call i32 @slurm_get_log_level() #5
  %62 = icmp sgt i32 %61, 6
  br i1 %62, label %63, label %64

63:                                               ; preds = %._crit_edge.thread
  call void (i32, ptr, ...) @slurm_log_var(i32 noundef 7, ptr noundef nonnull @.str.5, ptr noundef nonnull @plugin_type, ptr noundef nonnull @__func__.node_attr_put) #5
  br label %64

64:                                               ; preds = %63, %._crit_edge.thread
  call void @llvm.lifetime.end.p0(i64 8, ptr nonnull %3) #5
  ret i32 0
}